; Function Attrs: nofree norecurse nosync nounwind memory(argmem: readwrite) uwtable
define internal void @compute_sat32(ptr noundef readonly captures(none) %0, i32 noundef %1, i32 noundef %2, i32 noundef %3, ptr noundef captures(none) %4, i32 noundef %5) #5 {
  %7 = ashr i32 %5, 3
  %8 = sext i32 %7 to i64
  %9 = icmp sgt i32 %3, 0
  br i1 %9, label %.preheader.lr.ph, label %._crit_edge34

.preheader.lr.ph:                                 ; preds = %6
  %10 = sdiv i32 %1, 4
  %11 = icmp sgt i32 %2, 1
  %12 = sext i32 %10 to i64
  br i1 %11, label %.preheader.us.preheader, label %._crit_edge34

.preheader.us.preheader:                          ; preds = %.preheader.lr.ph
  %wide.trip.count = zext nneg i32 %2 to i64
  br label %.preheader.us

.preheader.us:                                    ; preds = %.preheader.us.preheader, %._crit_edge.us
  %.02633.us.pn = phi ptr [ %.02633.us, %._crit_edge.us ], [ %4, %.preheader.us.preheader ]
  %.02532.us = phi i32 [ %22, %._crit_edge.us ], [ 0, %.preheader.us.preheader ]
  %.02731.us = phi ptr [ %21, %._crit_edge.us ], [ %0, %.preheader.us.preheader ]
  %.02633.us = getelementptr inbounds double, ptr %.02633.us.pn, i64 %8
  %invariant.gep.us = getelementptr i8, ptr %.02731.us, i64 -4
  br label %13

13:                                               ; preds = %.preheader.us, %13
  %indvars.iv = phi i64 [ 1, %.preheader.us ], [ %indvars.iv.next, %13 ]
  %.02428.us = phi double [ 0.000000e+00, %.preheader.us ], [ %16, %13 ]
  %gep.us = getelementptr float, ptr %invariant.gep.us, i64 %indvars.iv
  %14 = load float, ptr %gep.us, align 4, !tbaa !67
  %15 = fpext nsz float %14 to double
  %16 = fadd nsz double %.02428.us, %15
  %17 = getelementptr inbounds nuw double, ptr %.02633.us.pn, i64 %indvars.iv
  %18 = load double, ptr %17, align 8, !tbaa !69
  %19 = fadd nsz double %18, %16
  %20 = getelementptr inbounds nuw double, ptr %.02633.us, i64 %indvars.iv
  store double %19, ptr %20, align 8, !tbaa !69
  %indvars.iv.next = add nuw nsw i64 %indvars.iv, 1
  %exitcond.not = icmp eq i64 %indvars.iv.next, %wide.trip.count
  br i1 %exitcond.not, label %._crit_edge.us, label %13, !llvm.loop !77

._crit_edge.us:                                   ; preds = %13
  %21 = getelementptr inbounds float, ptr %.02731.us, i64 %12
  %22 = add nuw nsw i32 %.02532.us, 1
  %exitcond37.not = icmp eq i32 %22, %3
  br i1 %exitcond37.not, label %._crit_edge34, label %.preheader.us, !llvm.loop !78

._crit_edge34:                                    ; preds = %._crit_edge.us, %.preheader.lr.ph, %6
  ret void
}